target datalayout = "e-m:e-p270:32:32-p271:32:32-p272:64:64-i64:64-i128:128-f80:128-n8:16:32:64-S128"
target triple = "x86_64-pc-linux-gnu"

%struct.mbedtls_sha3_context = type { [25 x i64], i32, i16, i16 }

; Function Attrs: nounwind uwtable
define hidden void @mbedtls_sha3_free(ptr noundef %0) #0 {
  %2 = alloca ptr, align 8
  store ptr %0, ptr %2, align 8, !tbaa !3
  %3 = load ptr, ptr %2, align 8, !tbaa !3
  %4 = icmp eq ptr %3, null
  br i1 %4, label %5, label %6

5:                                                ; preds = %1
  br label %8

6:                                                ; preds = %1
  %7 = load ptr, ptr %2, align 8, !tbaa !3
  call void @mbedtls_platform_zeroize(ptr noundef %7, i64 noundef 208)
  br label %8

8:                                                ; preds = %6, %5
  ret void
}

; Function Attrs: nounwind uwtable
define hidden i32 @mbedtls_sha3_finish(ptr noundef %0, ptr noundef %1, i64 noundef %2) #0 {
  %4 = alloca ptr, align 8
  %5 = alloca ptr, align 8
  %6 = alloca i64, align 8
  %7 = alloca i32, align 4
  store ptr %0, ptr %4, align 8, !tbaa !3
  store ptr %1, ptr %5, align 8, !tbaa !17
  store i64 %2, ptr %6, align 8, !tbaa !19
  call void @llvm.lifetime.start.p0(i64 4, ptr %7) #7
  store i32 -110, ptr %7, align 4, !tbaa !9
  %8 = load ptr, ptr %4, align 8, !tbaa !3
  %9 = getelementptr inbounds nuw %struct.mbedtls_sha3_context, ptr %8, i32 0, i32 2
  %10 = load i16, ptr %9, align 4, !tbaa !13
  %11 = zext i16 %10 to i32
  %12 = icmp sgt i32 %11, 0
  br i1 %12, label %13, label %26

13:                                               ; preds = %3
  %14 = load ptr, ptr %4, align 8, !tbaa !3
  %15 = getelementptr inbounds nuw %struct.mbedtls_sha3_context, ptr %14, i32 0, i32 2
  %16 = load i16, ptr %15, align 4, !tbaa !13
  %17 = zext i16 %16 to i64
  %18 = load i64, ptr %6, align 8, !tbaa !19
  %19 = icmp ugt i64 %17, %18
  br i1 %19, label %20, label %21

20:                                               ; preds = %13
  store i32 -118, ptr %7, align 4, !tbaa !9
  br label %114

21:                                               ; preds = %13
  %22 = load ptr, ptr %4, align 8, !tbaa !3
  %23 = getelementptr inbounds nuw %struct.mbedtls_sha3_context, ptr %22, i32 0, i32 2
  %24 = load i16, ptr %23, align 4, !tbaa !13
  %25 = zext i16 %24 to i64
  store i64 %25, ptr %6, align 8, !tbaa !19
  br label %26

26:                                               ; preds = %21, %3
  br label %27

27:                                               ; preds = %26
  %28 = load ptr, ptr %4, align 8, !tbaa !3
  %29 = getelementptr inbounds nuw %struct.mbedtls_sha3_context, ptr %28, i32 0, i32 1
  %30 = load i32, ptr %29, align 8, !tbaa !16
  %31 = and i32 %30, 7
  %32 = shl i32 %31, 3
  %33 = zext i32 %32 to i64
  %34 = shl i64 6, %33
  %35 = load ptr, ptr %4, align 8, !tbaa !3
  %36 = getelementptr inbounds nuw %struct.mbedtls_sha3_context, ptr %35, i32 0, i32 0
  %37 = load ptr, ptr %4, align 8, !tbaa !3
  %38 = getelementptr inbounds nuw %struct.mbedtls_sha3_context, ptr %37, i32 0, i32 1
  %39 = load i32, ptr %38, align 8, !tbaa !16
  %40 = lshr i32 %39, 3
  %41 = zext i32 %40 to i64
  %42 = getelementptr inbounds nuw [25 x i64], ptr %36, i64 0, i64 %41
  %43 = load i64, ptr %42, align 8, !tbaa !19
  %44 = xor i64 %43, %34
  store i64 %44, ptr %42, align 8, !tbaa !19
  br label %45

45:                                               ; preds = %27
  br label %46

46:                                               ; preds = %45
  br label %47

47:                                               ; preds = %46
  %48 = load ptr, ptr %4, align 8, !tbaa !3
  %49 = getelementptr inbounds nuw %struct.mbedtls_sha3_context, ptr %48, i32 0, i32 3
  %50 = load i16, ptr %49, align 2, !tbaa !15
  %51 = zext i16 %50 to i32
  %52 = sub nsw i32 %51, 1
  %53 = and i32 %52, 7
  %54 = shl i32 %53, 3
  %55 = zext i32 %54 to i64
  %56 = shl i64 128, %55
  %57 = load ptr, ptr %4, align 8, !tbaa !3
  %58 = getelementptr inbounds nuw %struct.mbedtls_sha3_context, ptr %57, i32 0, i32 0
  %59 = load ptr, ptr %4, align 8, !tbaa !3
  %60 = getelementptr inbounds nuw %struct.mbedtls_sha3_context, ptr %59, i32 0, i32 3
  %61 = load i16, ptr %60, align 2, !tbaa !15
  %62 = zext i16 %61 to i32
  %63 = sub nsw i32 %62, 1
  %64 = ashr i32 %63, 3
  %65 = sext i32 %64 to i64
  %66 = getelementptr inbounds [25 x i64], ptr %58, i64 0, i64 %65
  %67 = load i64, ptr %66, align 8, !tbaa !19
  %68 = xor i64 %67, %56
  store i64 %68, ptr %66, align 8, !tbaa !19
  br label %69

69:                                               ; preds = %47
  br label %70

70:                                               ; preds = %69
  %71 = load ptr, ptr %4, align 8, !tbaa !3
  call void @keccak_f1600(ptr noundef %71)
  %72 = load ptr, ptr %4, align 8, !tbaa !3
  %73 = getelementptr inbounds nuw %struct.mbedtls_sha3_context, ptr %72, i32 0, i32 1
  store i32 0, ptr %73, align 8, !tbaa !16
  br label %74

74:                                               ; preds = %112, %70
  %75 = load i64, ptr %6, align 8, !tbaa !19
  %76 = add i64 %75, -1
  store i64 %76, ptr %6, align 8, !tbaa !19
  %77 = icmp ugt i64 %75, 0
  br i1 %77, label %78, label %113

78:                                               ; preds = %74
  %79 = load ptr, ptr %4, align 8, !tbaa !3
  %80 = getelementptr inbounds nuw %struct.mbedtls_sha3_context, ptr %79, i32 0, i32 0
  %81 = load ptr, ptr %4, align 8, !tbaa !3
  %82 = getelementptr inbounds nuw %struct.mbedtls_sha3_context, ptr %81, i32 0, i32 1
  %83 = load i32, ptr %82, align 8, !tbaa !16
  %84 = lshr i32 %83, 3
  %85 = zext i32 %84 to i64
  %86 = getelementptr inbounds nuw [25 x i64], ptr %80, i64 0, i64 %85
  %87 = load i64, ptr %86, align 8, !tbaa !19
  %88 = load ptr, ptr %4, align 8, !tbaa !3
  %89 = getelementptr inbounds nuw %struct.mbedtls_sha3_context, ptr %88, i32 0, i32 1
  %90 = load i32, ptr %89, align 8, !tbaa !16
  %91 = and i32 %90, 7
  %92 = shl i32 %91, 3
  %93 = zext i32 %92 to i64
  %94 = lshr i64 %87, %93
  %95 = trunc i64 %94 to i8
  %96 = load ptr, ptr %5, align 8, !tbaa !17
  %97 = getelementptr inbounds nuw i8, ptr %96, i32 1
  store ptr %97, ptr %5, align 8, !tbaa !17
  store i8 %95, ptr %96, align 1, !tbaa !8
  %98 = load ptr, ptr %4, align 8, !tbaa !3
  %99 = getelementptr inbounds nuw %struct.mbedtls_sha3_context, ptr %98, i32 0, i32 1
  %100 = load i32, ptr %99, align 8, !tbaa !16
  %101 = add i32 %100, 1
  %102 = load ptr, ptr %4, align 8, !tbaa !3
  %103 = getelementptr inbounds nuw %struct.mbedtls_sha3_context, ptr %102, i32 0, i32 3
  %104 = load i16, ptr %103, align 2, !tbaa !15
  %105 = zext i16 %104 to i32
  %106 = urem i32 %101, %105
  %107 = load ptr, ptr %4, align 8, !tbaa !3
  %108 = getelementptr inbounds nuw %struct.mbedtls_sha3_context, ptr %107, i32 0, i32 1
  store i32 %106, ptr %108, align 8, !tbaa !16
  %109 = icmp eq i32 %106, 0
  br i1 %109, label %110, label %112

110:                                              ; preds = %78
  %111 = load ptr, ptr %4, align 8, !tbaa !3
  call void @keccak_f1600(ptr noundef %111)
  br label %112

112:                                              ; preds = %110, %78
  br label %74, !llvm.loop !31

113:                                              ; preds = %74
  store i32 0, ptr %7, align 4, !tbaa !9
  br label %114

114:                                              ; preds = %113, %20
  %115 = load ptr, ptr %4, align 8, !tbaa !3
  call void @mbedtls_sha3_free(ptr noundef %115)
  %116 = load i32, ptr %7, align 4, !tbaa !9
  call void @llvm.lifetime.end.p0(i64 4, ptr %7) #7
  ret i32 %116
}