; Function Attrs: nounwind uwtable
define hidden range(i32 -118, 1) i32 @mbedtls_sha3_finish(ptr noundef %0, ptr noundef writeonly captures(none) %1, i64 noundef %2) local_unnamed_addr #2 {
  %4 = getelementptr inbounds nuw i8, ptr %0, i64 204
  %5 = load i16, ptr %4, align 4, !tbaa !11
  %.not = icmp eq i16 %5, 0
  br i1 %.not, label %9, label %6

6:                                                ; preds = %3
  %7 = zext i16 %5 to i64
  %8 = icmp ult i64 %2, %7
  br i1 %8, label %mbedtls_sha3_free.exit, label %9

9:                                                ; preds = %6, %3
  %.022 = phi i64 [ %2, %3 ], [ %7, %6 ]
  %10 = getelementptr inbounds nuw i8, ptr %0, i64 200
  %11 = load i32, ptr %10, align 8, !tbaa !14
  %12 = shl i32 %11, 3
  %13 = and i32 %12, 56
  %14 = zext nneg i32 %13 to i64
  %15 = shl nuw nsw i64 6, %14
  %16 = lshr i32 %11, 3
  %17 = zext nneg i32 %16 to i64
  %18 = getelementptr inbounds nuw [25 x i64], ptr %0, i64 0, i64 %17
  %19 = load i64, ptr %18, align 8, !tbaa !15
  %20 = xor i64 %15, %19
  store i64 %20, ptr %18, align 8, !tbaa !15
  %21 = getelementptr inbounds nuw i8, ptr %0, i64 206
  %22 = load i16, ptr %21, align 2, !tbaa !13
  %23 = zext i16 %22 to i32
  %24 = add nsw i32 %23, -1
  %25 = shl nsw i32 %24, 3
  %26 = and i32 %25, 56
  %27 = zext nneg i32 %26 to i64
  %28 = shl nuw i64 128, %27
  %29 = ashr i32 %24, 3
  %30 = sext i32 %29 to i64
  %31 = getelementptr inbounds [25 x i64], ptr %0, i64 0, i64 %30
  %32 = load i64, ptr %31, align 8, !tbaa !15
  %33 = xor i64 %28, %32
  store i64 %33, ptr %31, align 8, !tbaa !15
  tail call fastcc void @keccak_f1600(ptr noundef nonnull %0)
  store i32 0, ptr %10, align 8, !tbaa !14
  %.not2526 = icmp eq i64 %.022, 0
  br i1 %.not2526, label %mbedtls_sha3_free.exit, label %.lr.ph

.lr.ph:                                           ; preds = %9, %53
  %.in = phi i64 [ %34, %53 ], [ %.022, %9 ]
  %.02327 = phi ptr [ %45, %53 ], [ %1, %9 ]
  %34 = add i64 %.in, -1
  %35 = load i32, ptr %10, align 8, !tbaa !14
  %36 = lshr i32 %35, 3
  %37 = zext nneg i32 %36 to i64
  %38 = getelementptr inbounds nuw [25 x i64], ptr %0, i64 0, i64 %37
  %39 = load i64, ptr %38, align 8, !tbaa !15
  %40 = shl i32 %35, 3
  %41 = and i32 %40, 56
  %42 = zext nneg i32 %41 to i64
  %43 = lshr i64 %39, %42
  %44 = trunc i64 %43 to i8
  %45 = getelementptr inbounds nuw i8, ptr %.02327, i64 1
  store i8 %44, ptr %.02327, align 1, !tbaa !4
  %46 = load i32, ptr %10, align 8, !tbaa !14
  %47 = add i32 %46, 1
  %48 = load i16, ptr %21, align 2, !tbaa !13
  %49 = zext i16 %48 to i32
  %50 = urem i32 %47, %49
  store i32 %50, ptr %10, align 8, !tbaa !14
  %51 = icmp eq i32 %50, 0
  br i1 %51, label %52, label %53

52:                                               ; preds = %.lr.ph
  tail call fastcc void @keccak_f1600(ptr noundef nonnull %0)
  br label %53

53:                                               ; preds = %52, %.lr.ph
  %.not25 = icmp eq i64 %34, 0
  br i1 %.not25, label %mbedtls_sha3_free.exit, label %.lr.ph, !llvm.loop !25

mbedtls_sha3_free.exit:                           ; preds = %53, %9, %6
  %.0 = phi i32 [ -118, %6 ], [ 0, %9 ], [ 0, %53 ]
  tail call void @mbedtls_platform_zeroize(ptr noundef nonnull %0, i64 noundef 208) #12
  ret i32 %.0
}